; Function Attrs: mustprogress nofree nounwind willreturn memory(inaccessiblemem: readwrite) uwtable
define internal noalias noundef ptr @_cmsMallocDefaultFn(ptr nocapture readnone %0, i32 noundef %1) #5 {
  %3 = add i32 %1, -536870913
  %or.cond = icmp ult i32 %3, -536870912
  br i1 %or.cond, label %7, label %4

4:                                                ; preds = %2
  %5 = zext nneg i32 %1 to i64
  %6 = tail call noalias ptr @malloc(i64 noundef %5) #19
  br label %7

7:                                                ; preds = %2, %4
  %.0 = phi ptr [ %6, %4 ], [ null, %2 ]
  ret ptr %.0
}